target datalayout = "e-m:e-p270:32:32-p271:32:32-p272:64:64-i64:64-i128:128-f80:128-n8:16:32:64-S128"
target triple = "x86_64-pc-linux-gnu"

%"class.cv::Size_" = type { i32, i32 }
%"class.testing::internal::ParamGenerator" = type { %"class.testing::internal::linked_ptr" }
%"class.testing::internal::linked_ptr" = type { ptr, %"class.testing::internal::linked_ptr_internal" }
%"class.testing::internal::linked_ptr_internal" = type { ptr }
%"class.testing::internal::CartesianProductHolder2" = type { %"class.testing::internal::ValueArray4", %"class.testing::internal::ValueArray2" }
%"class.testing::internal::ValueArray4" = type { %"class.cv::Size_", %"class.cv::Size_", %"class.cv::Size_", %"class.cv::Size_" }
%"class.testing::internal::ValueArray2" = type { i32, i32 }

@_ZN4perfL5sznHDE = internal global %"class.cv::Size_" zeroinitializer, align 4
@_ZN4perfL5szqHDE = internal global %"class.cv::Size_" zeroinitializer, align 4
@_ZN4perfL6sz720pE = internal global %"class.cv::Size_" zeroinitializer, align 4
@_ZN4perfL7sz1080pE = internal global %"class.cv::Size_" zeroinitializer, align 4

; Function Attrs: mustprogress nounwind uwtable
define linkonce_odr hidden void @_ZN7testing8internal11ValueArray2IiiEC2ERKS2_(ptr noundef nonnull align 4 dereferenceable(8) %0, ptr noundef nonnull align 4 dereferenceable(8) %1) unnamed_addr #7 comdat align 2 {
  %3 = alloca ptr, align 8
  %4 = alloca ptr, align 8
  store ptr %0, ptr %3, align 8, !tbaa !257
  store ptr %1, ptr %4, align 8, !tbaa !257
  %5 = load ptr, ptr %3, align 8
  %6 = getelementptr inbounds nuw %"class.testing::internal::ValueArray2", ptr %5, i32 0, i32 0
  %7 = load ptr, ptr %4, align 8, !tbaa !257
  %8 = getelementptr inbounds nuw %"class.testing::internal::ValueArray2", ptr %7, i32 0, i32 0
  %9 = load i32, ptr %8, align 4, !tbaa !261
  store i32 %9, ptr %6, align 4, !tbaa !261
  %10 = getelementptr inbounds nuw %"class.testing::internal::ValueArray2", ptr %5, i32 0, i32 1
  %11 = load ptr, ptr %4, align 8, !tbaa !257
  %12 = getelementptr inbounds nuw %"class.testing::internal::ValueArray2", ptr %11, i32 0, i32 1
  %13 = load i32, ptr %12, align 4, !tbaa !263
  store i32 %13, ptr %10, align 4, !tbaa !263
  ret void
}

; Function Attrs: mustprogress nounwind uwtable
define linkonce_odr hidden void @_ZN7testing8internal11ValueArray4IN2cv5Size_IiEES4_S4_S4_EC2ERKS5_(ptr noundef nonnull align 4 dereferenceable(32) %0, ptr noundef nonnull align 4 dereferenceable(32) %1) unnamed_addr #7 comdat align 2 {
  %3 = alloca ptr, align 8
  %4 = alloca ptr, align 8
  store ptr %0, ptr %3, align 8, !tbaa !255
  store ptr %1, ptr %4, align 8, !tbaa !255
  %5 = load ptr, ptr %3, align 8
  %6 = getelementptr inbounds nuw %"class.testing::internal::ValueArray4", ptr %5, i32 0, i32 0
  %7 = load ptr, ptr %4, align 8, !tbaa !255
  %8 = getelementptr inbounds nuw %"class.testing::internal::ValueArray4", ptr %7, i32 0, i32 0
  call void @llvm.memcpy.p0.p0.i64(ptr align 4 %6, ptr align 4 %8, i64 8, i1 false), !tbaa.struct !38
  %9 = getelementptr inbounds nuw %"class.testing::internal::ValueArray4", ptr %5, i32 0, i32 1
  %10 = load ptr, ptr %4, align 8, !tbaa !255
  %11 = getelementptr inbounds nuw %"class.testing::internal::ValueArray4", ptr %10, i32 0, i32 1
  call void @llvm.memcpy.p0.p0.i64(ptr align 4 %9, ptr align 4 %11, i64 8, i1 false), !tbaa.struct !38
  %12 = getelementptr inbounds nuw %"class.testing::internal::ValueArray4", ptr %5, i32 0, i32 2
  %13 = load ptr, ptr %4, align 8, !tbaa !255
  %14 = getelementptr inbounds nuw %"class.testing::internal::ValueArray4", ptr %13, i32 0, i32 2
  call void @llvm.memcpy.p0.p0.i64(ptr align 4 %12, ptr align 4 %14, i64 8, i1 false), !tbaa.struct !38
  %15 = getelementptr inbounds nuw %"class.testing::internal::ValueArray4", ptr %5, i32 0, i32 3
  %16 = load ptr, ptr %4, align 8, !tbaa !255
  %17 = getelementptr inbounds nuw %"class.testing::internal::ValueArray4", ptr %16, i32 0, i32 3
  call void @llvm.memcpy.p0.p0.i64(ptr align 4 %15, ptr align 4 %17, i64 8, i1 false), !tbaa.struct !38
  ret void
}

; Function Attrs: mustprogress uwtable
define linkonce_odr hidden void @_ZN7testing8internal23CartesianProductHolder2INS0_11ValueArray4IN2cv5Size_IiEES5_S5_S5_EENS0_11ValueArray2IiiEEEC2ERKS6_RKS8_(ptr noundef nonnull align 4 dereferenceable(40) %0, ptr noundef nonnull align 4 dereferenceable(32) %1, ptr noundef nonnull align 4 dereferenceable(8) %2) unnamed_addr #6 comdat align 2 {
  %4 = alloca ptr, align 8
  %5 = alloca ptr, align 8
  %6 = alloca ptr, align 8
  store ptr %0, ptr %4, align 8, !tbaa !259
  store ptr %1, ptr %5, align 8, !tbaa !255
  store ptr %2, ptr %6, align 8, !tbaa !257
  %7 = load ptr, ptr %4, align 8
  %8 = getelementptr inbounds nuw %"class.testing::internal::CartesianProductHolder2", ptr %7, i32 0, i32 0
  %9 = load ptr, ptr %5, align 8, !tbaa !255
  call void @_ZN7testing8internal11ValueArray4IN2cv5Size_IiEES4_S4_S4_EC2ERKS5_(ptr noundef nonnull align 4 dereferenceable(32) %8, ptr noundef nonnull align 4 dereferenceable(32) %9)
  %10 = getelementptr inbounds nuw %"class.testing::internal::CartesianProductHolder2", ptr %7, i32 0, i32 1
  %11 = load ptr, ptr %6, align 8, !tbaa !257
  call void @_ZN7testing8internal11ValueArray2IiiEC2ERKS2_(ptr noundef nonnull align 4 dereferenceable(8) %10, ptr noundef nonnull align 4 dereferenceable(8) %11)
  ret void
}

; Function Attrs: mustprogress nounwind uwtable
define linkonce_odr hidden void @_ZN7testing8internal11ValueArray2IiiEC2Eii(ptr noundef nonnull align 4 dereferenceable(8) %0, i32 noundef %1, i32 noundef %2) unnamed_addr #7 comdat align 2 {
  %4 = alloca ptr, align 8
  %5 = alloca i32, align 4
  %6 = alloca i32, align 4
  store ptr %0, ptr %4, align 8, !tbaa !257
  store i32 %1, ptr %5, align 4, !tbaa !9
  store i32 %2, ptr %6, align 4, !tbaa !9
  %7 = load ptr, ptr %4, align 8
  %8 = getelementptr inbounds nuw %"class.testing::internal::ValueArray2", ptr %7, i32 0, i32 0
  %9 = load i32, ptr %5, align 4, !tbaa !9
  store i32 %9, ptr %8, align 4, !tbaa !261
  %10 = getelementptr inbounds nuw %"class.testing::internal::ValueArray2", ptr %7, i32 0, i32 1
  %11 = load i32, ptr %6, align 4, !tbaa !9
  store i32 %11, ptr %10, align 4, !tbaa !263
  ret void
}

; Function Attrs: mustprogress nounwind uwtable
define linkonce_odr hidden void @_ZN7testing8internal11ValueArray4IN2cv5Size_IiEES4_S4_S4_EC2ES4_S4_S4_S4_(ptr noundef nonnull align 4 dereferenceable(32) %0, i64 %1, i64 %2, i64 %3, i64 %4) unnamed_addr #7 comdat align 2 {
  %6 = alloca %"class.cv::Size_", align 4
  %7 = alloca %"class.cv::Size_", align 4
  %8 = alloca %"class.cv::Size_", align 4
  %9 = alloca %"class.cv::Size_", align 4
  %10 = alloca ptr, align 8
  store i64 %1, ptr %6, align 4
  store i64 %2, ptr %7, align 4
  store i64 %3, ptr %8, align 4
  store i64 %4, ptr %9, align 4
  store ptr %0, ptr %10, align 8, !tbaa !255
  %11 = load ptr, ptr %10, align 8
  %12 = getelementptr inbounds nuw %"class.testing::internal::ValueArray4", ptr %11, i32 0, i32 0
  call void @llvm.memcpy.p0.p0.i64(ptr align 4 %12, ptr align 4 %6, i64 8, i1 false), !tbaa.struct !38
  %13 = getelementptr inbounds nuw %"class.testing::internal::ValueArray4", ptr %11, i32 0, i32 1
  call void @llvm.memcpy.p0.p0.i64(ptr align 4 %13, ptr align 4 %7, i64 8, i1 false), !tbaa.struct !38
  %14 = getelementptr inbounds nuw %"class.testing::internal::ValueArray4", ptr %11, i32 0, i32 2
  call void @llvm.memcpy.p0.p0.i64(ptr align 4 %14, ptr align 4 %8, i64 8, i1 false), !tbaa.struct !38
  %15 = getelementptr inbounds nuw %"class.testing::internal::ValueArray4", ptr %11, i32 0, i32 3
  call void @llvm.memcpy.p0.p0.i64(ptr align 4 %15, ptr align 4 %9, i64 8, i1 false), !tbaa.struct !38
  ret void
}

; Function Attrs: mustprogress uwtable
define linkonce_odr hidden void @_ZN7testing7CombineINS_8internal11ValueArray4IN2cv5Size_IiEES5_S5_S5_EENS1_11ValueArray2IiiEEEENS1_23CartesianProductHolder2IT_T0_EERKSA_RKSB_(ptr dead_on_unwind noalias writable sret(%"class.testing::internal::CartesianProductHolder2") align 4 %0, ptr noundef nonnull align 4 dereferenceable(32) %1, ptr noundef nonnull align 4 dereferenceable(8) %2) #6 comdat {
  %4 = alloca ptr, align 8
  %5 = alloca ptr, align 8
  %6 = alloca ptr, align 8
  store ptr %0, ptr %4, align 8
  store ptr %1, ptr %5, align 8, !tbaa !255
  store ptr %2, ptr %6, align 8, !tbaa !257
  %7 = load ptr, ptr %5, align 8, !tbaa !255
  %8 = load ptr, ptr %6, align 8, !tbaa !257
  call void @_ZN7testing8internal23CartesianProductHolder2INS0_11ValueArray4IN2cv5Size_IiEES5_S5_S5_EENS0_11ValueArray2IiiEEEC2ERKS6_RKS8_(ptr noundef nonnull align 4 dereferenceable(40) %0, ptr noundef nonnull align 4 dereferenceable(32) %7, ptr noundef nonnull align 4 dereferenceable(8) %8)
  ret void
}

; Function Attrs: mustprogress uwtable
define linkonce_odr hidden void @_ZN7testing6ValuesIiiEENS_8internal11ValueArray2IT_T0_EES3_S4_(ptr dead_on_unwind noalias writable sret(%"class.testing::internal::ValueArray2") align 4 %0, i32 noundef %1, i32 noundef %2) #6 comdat {
  %4 = alloca ptr, align 8
  %5 = alloca i32, align 4
  %6 = alloca i32, align 4
  store ptr %0, ptr %4, align 8
  store i32 %1, ptr %5, align 4, !tbaa !9
  store i32 %2, ptr %6, align 4, !tbaa !9
  %7 = load i32, ptr %5, align 4, !tbaa !9
  %8 = load i32, ptr %6, align 4, !tbaa !9
  call void @_ZN7testing8internal11ValueArray2IiiEC2Eii(ptr noundef nonnull align 4 dereferenceable(8) %0, i32 noundef %7, i32 noundef %8)
  ret void
}

; Function Attrs: mustprogress uwtable
define linkonce_odr hidden void @_ZN7testing6ValuesIN2cv5Size_IiEES3_S3_S3_EENS_8internal11ValueArray4IT_T0_T1_T2_EES6_S7_S8_S9_(ptr dead_on_unwind noalias writable sret(%"class.testing::internal::ValueArray4") align 4 %0, i64 %1, i64 %2, i64 %3, i64 %4) #6 comdat {
  %6 = alloca ptr, align 8
  %7 = alloca %"class.cv::Size_", align 4
  %8 = alloca %"class.cv::Size_", align 4
  %9 = alloca %"class.cv::Size_", align 4
  %10 = alloca %"class.cv::Size_", align 4
  %11 = alloca %"class.cv::Size_", align 4
  %12 = alloca %"class.cv::Size_", align 4
  %13 = alloca %"class.cv::Size_", align 4
  %14 = alloca %"class.cv::Size_", align 4
  store ptr %0, ptr %6, align 8
  store i64 %1, ptr %7, align 4
  store i64 %2, ptr %8, align 4
  store i64 %3, ptr %9, align 4
  store i64 %4, ptr %10, align 4
  call void @llvm.memcpy.p0.p0.i64(ptr align 4 %11, ptr align 4 %7, i64 8, i1 false), !tbaa.struct !38
  call void @llvm.memcpy.p0.p0.i64(ptr align 4 %12, ptr align 4 %8, i64 8, i1 false), !tbaa.struct !38
  call void @llvm.memcpy.p0.p0.i64(ptr align 4 %13, ptr align 4 %9, i64 8, i1 false), !tbaa.struct !38
  call void @llvm.memcpy.p0.p0.i64(ptr align 4 %14, ptr align 4 %10, i64 8, i1 false), !tbaa.struct !38
  %15 = load i64, ptr %11, align 4
  %16 = load i64, ptr %12, align 4
  %17 = load i64, ptr %13, align 4
  %18 = load i64, ptr %14, align 4
  call void @_ZN7testing8internal11ValueArray4IN2cv5Size_IiEES4_S4_S4_EC2ES4_S4_S4_S4_(ptr noundef nonnull align 4 dereferenceable(32) %0, i64 %15, i64 %16, i64 %17, i64 %18)
  ret void
}

; Function Attrs: mustprogress uwtable
define internal void @_ZN11opencv_test12_GLOBAL__N_149gtest_learningBasedWBPerfTest_perf_EvalGenerator_Ev(ptr dead_on_unwind noalias writable sret(%"class.testing::internal::ParamGenerator") align 8 %0) #6 {
  %2 = alloca ptr, align 8
  %3 = alloca %"class.testing::internal::CartesianProductHolder2", align 4
  %4 = alloca %"class.testing::internal::ValueArray4", align 4
  %5 = alloca %"class.cv::Size_", align 4
  %6 = alloca %"class.cv::Size_", align 4
  %7 = alloca %"class.cv::Size_", align 4
  %8 = alloca %"class.cv::Size_", align 4
  %9 = alloca %"class.testing::internal::ValueArray2", align 4
  store ptr %0, ptr %2, align 8
  call void @llvm.lifetime.start.p0(i64 40, ptr %3) #3
  call void @llvm.lifetime.start.p0(i64 32, ptr %4) #3
  call void @llvm.memcpy.p0.p0.i64(ptr align 4 %5, ptr align 4 @_ZN4perfL5sznHDE, i64 8, i1 false), !tbaa.struct !38
  call void @llvm.memcpy.p0.p0.i64(ptr align 4 %6, ptr align 4 @_ZN4perfL5szqHDE, i64 8, i1 false), !tbaa.struct !38
  call void @llvm.memcpy.p0.p0.i64(ptr align 4 %7, ptr align 4 @_ZN4perfL6sz720pE, i64 8, i1 false), !tbaa.struct !38
  call void @llvm.memcpy.p0.p0.i64(ptr align 4 %8, ptr align 4 @_ZN4perfL7sz1080pE, i64 8, i1 false), !tbaa.struct !38
  %10 = load i64, ptr %5, align 4
  %11 = load i64, ptr %6, align 4
  %12 = load i64, ptr %7, align 4
  %13 = load i64, ptr %8, align 4
  call void @_ZN7testing6ValuesIN2cv5Size_IiEES3_S3_S3_EENS_8internal11ValueArray4IT_T0_T1_T2_EES6_S7_S8_S9_(ptr dead_on_unwind writable sret(%"class.testing::internal::ValueArray4") align 4 %4, i64 %10, i64 %11, i64 %12, i64 %13)
  call void @llvm.lifetime.start.p0(i64 8, ptr %9) #3
  call void @_ZN7testing6ValuesIiiEENS_8internal11ValueArray2IT_T0_EES3_S4_(ptr dead_on_unwind writable sret(%"class.testing::internal::ValueArray2") align 4 %9, i32 noundef 16, i32 noundef 18)
  call void @_ZN7testing7CombineINS_8internal11ValueArray4IN2cv5Size_IiEES5_S5_S5_EENS1_11ValueArray2IiiEEEENS1_23CartesianProductHolder2IT_T0_EERKSA_RKSB_(ptr dead_on_unwind writable sret(%"class.testing::internal::CartesianProductHolder2") align 4 %3, ptr noundef nonnull align 4 dereferenceable(32) %4, ptr noundef nonnull align 4 dereferenceable(8) %9)
  call void @_ZNK7testing8internal23CartesianProductHolder2INS0_11ValueArray4IN2cv5Size_IiEES5_S5_S5_EENS0_11ValueArray2IiiEEEcvNS0_14ParamGeneratorISt5tupleIJT_T0_EEEEIS5_N4perf7MatTypeEEEv(ptr dead_on_unwind writable sret(%"class.testing::internal::ParamGenerator") align 8 %0, ptr noundef nonnull align 4 dereferenceable(40) %3)
  call void @llvm.lifetime.end.p0(i64 8, ptr %9) #3
  call void @llvm.lifetime.end.p0(i64 32, ptr %4) #3
  call void @llvm.lifetime.end.p0(i64 40, ptr %3) #3
  ret void
}